target datalayout = "e-m:e-p270:32:32-p271:32:32-p272:64:64-i64:64-i128:128-f80:128-n8:16:32:64-S128"
target triple = "x86_64-unknown-linux-gnu"

%"class.cvc5::internal::NodeTemplate" = type { ptr }
%"class.cvc5::internal::theory::SimpleTheoryLemma" = type { %"class.cvc5::internal::theory::TheoryInference.base", %"class.cvc5::internal::NodeTemplate", i32, ptr }
%"class.cvc5::internal::theory::TheoryInference.base" = type <{ ptr, i32 }>
%"class.cvc5::internal::TrustNode" = type { i32, %"class.cvc5::internal::NodeTemplate", ptr }

; Function Attrs: mustprogress uwtable
define linkonce_odr hidden void @_ZN4cvc58internal4expr9NodeValue3incEv(ptr noundef nonnull align 8 dereferenceable(16) %this) #4 comdat align 2 {
entry:
  %this.addr = alloca ptr, align 8
  store ptr %this, ptr %this.addr, align 8
  %this1 = load ptr, ptr %this.addr, align 8
  %bf.load = load i64, ptr %this1, align 8
  %bf.lshr = lshr i64 %bf.load, 40
  %bf.clear = and i64 %bf.lshr, 1048575
  %bf.cast = trunc i64 %bf.clear to i32
  %cmp = icmp ult i32 %bf.cast, 1048574
  br i1 %cmp, label %if.then, label %if.else

if.then:                                          ; preds = %entry
  %bf.load2 = load i64, ptr %this1, align 8
  %bf.lshr3 = lshr i64 %bf.load2, 40
  %bf.clear4 = and i64 %bf.lshr3, 1048575
  %bf.cast5 = trunc i64 %bf.clear4 to i32
  %inc = add i32 %bf.cast5, 1
  %0 = zext i32 %inc to i64
  %bf.load6 = load i64, ptr %this1, align 8
  %bf.value = and i64 %0, 1048575
  %bf.shl = shl i64 %bf.value, 40
  %bf.clear7 = and i64 %bf.load6, -1152920405095219201
  %bf.set = or i64 %bf.clear7, %bf.shl
  store i64 %bf.set, ptr %this1, align 8
  br label %if.end25

if.else:                                          ; preds = %entry
  %bf.load8 = load i64, ptr %this1, align 8
  %bf.lshr9 = lshr i64 %bf.load8, 40
  %bf.clear10 = and i64 %bf.lshr9, 1048575
  %bf.cast11 = trunc i64 %bf.clear10 to i32
  %cmp12 = icmp eq i32 %bf.cast11, 1048574
  br i1 %cmp12, label %if.then13, label %if.end

if.then13:                                        ; preds = %if.else
  %bf.load14 = load i64, ptr %this1, align 8
  %bf.lshr15 = lshr i64 %bf.load14, 40
  %bf.clear16 = and i64 %bf.lshr15, 1048575
  %bf.cast17 = trunc i64 %bf.clear16 to i32
  %inc18 = add i32 %bf.cast17, 1
  %1 = zext i32 %inc18 to i64
  %bf.load19 = load i64, ptr %this1, align 8
  %bf.value20 = and i64 %1, 1048575
  %bf.shl21 = shl i64 %bf.value20, 40
  %bf.clear22 = and i64 %bf.load19, -1152920405095219201
  %bf.set23 = or i64 %bf.clear22, %bf.shl21
  store i64 %bf.set23, ptr %this1, align 8
  call void @_ZN4cvc58internal4expr9NodeValue20markRefCountMaxedOutEv(ptr noundef nonnull align 8 dereferenceable(16) %this1)
  br label %if.end

if.end:                                           ; preds = %if.then13, %if.else
  br label %if.end25

if.end25:                                         ; preds = %if.end, %if.then
  ret void
}

; Function Attrs: mustprogress uwtable
define linkonce_odr hidden void @_ZN4cvc58internal12NodeTemplateILb1EEC2ERKS2_(ptr noundef nonnull align 8 dereferenceable(8) %this, ptr noundef nonnull align 8 dereferenceable(8) %e) unnamed_addr #4 comdat align 2 {
entry:
  %this.addr = alloca ptr, align 8
  %e.addr = alloca ptr, align 8
  store ptr %this, ptr %this.addr, align 8
  store ptr %e, ptr %e.addr, align 8
  %this1 = load ptr, ptr %this.addr, align 8
  %0 = load ptr, ptr %e.addr, align 8
  %d_nv = getelementptr inbounds %"class.cvc5::internal::NodeTemplate", ptr %0, i32 0, i32 0
  %1 = load ptr, ptr %d_nv, align 8
  %d_nv2 = getelementptr inbounds %"class.cvc5::internal::NodeTemplate", ptr %this1, i32 0, i32 0
  store ptr %1, ptr %d_nv2, align 8
  %d_nv3 = getelementptr inbounds %"class.cvc5::internal::NodeTemplate", ptr %this1, i32 0, i32 0
  %2 = load ptr, ptr %d_nv3, align 8
  call void @_ZN4cvc58internal4expr9NodeValue3incEv(ptr noundef nonnull align 8 dereferenceable(16) %2)
  ret void
}

; Function Attrs: mustprogress uwtable
define hidden void @_ZN4cvc58internal6theory17SimpleTheoryLemma12processLemmaERNS1_13LemmaPropertyE(ptr noalias sret(%"class.cvc5::internal::TrustNode") align 8 %agg.result, ptr noundef nonnull align 8 dereferenceable(40) %this, ptr noundef nonnull align 4 dereferenceable(4) %p) unnamed_addr #4 align 2 personality ptr @__gxx_personality_v0 {
entry:
  %result.ptr = alloca ptr, align 8
  %this.addr = alloca ptr, align 8
  %p.addr = alloca ptr, align 8
  %agg.tmp = alloca %"class.cvc5::internal::NodeTemplate", align 8
  %exn.slot = alloca ptr, align 8
  %ehselector.slot = alloca i32, align 4
  store ptr %agg.result, ptr %result.ptr, align 8
  store ptr %this, ptr %this.addr, align 8
  store ptr %p, ptr %p.addr, align 8
  %this1 = load ptr, ptr %this.addr, align 8
  %d_property = getelementptr inbounds %"class.cvc5::internal::theory::SimpleTheoryLemma", ptr %this1, i32 0, i32 2
  %0 = load i32, ptr %d_property, align 8
  %1 = load ptr, ptr %p.addr, align 8
  store i32 %0, ptr %1, align 4
  %d_node = getelementptr inbounds %"class.cvc5::internal::theory::SimpleTheoryLemma", ptr %this1, i32 0, i32 1
  call void @_ZN4cvc58internal12NodeTemplateILb1EEC2ERKS2_(ptr noundef nonnull align 8 dereferenceable(8) %agg.tmp, ptr noundef nonnull align 8 dereferenceable(8) %d_node)
  %d_pg = getelementptr inbounds %"class.cvc5::internal::theory::SimpleTheoryLemma", ptr %this1, i32 0, i32 3
  %2 = load ptr, ptr %d_pg, align 8
  invoke void @_ZN4cvc58internal9TrustNode12mkTrustLemmaENS0_12NodeTemplateILb1EEEPNS0_14ProofGeneratorE(ptr sret(%"class.cvc5::internal::TrustNode") align 8 %agg.result, ptr noundef %agg.tmp, ptr noundef %2)
          to label %invoke.cont unwind label %lpad

invoke.cont:                                      ; preds = %entry
  call void @_ZN4cvc58internal12NodeTemplateILb1EED2Ev(ptr noundef nonnull align 8 dereferenceable(8) %agg.tmp) #3
  ret void

lpad:                                             ; preds = %entry
  %3 = landingpad { ptr, i32 }
          cleanup
  %4 = extractvalue { ptr, i32 } %3, 0
  store ptr %4, ptr %exn.slot, align 8
  %5 = extractvalue { ptr, i32 } %3, 1
  store i32 %5, ptr %ehselector.slot, align 4
  call void @_ZN4cvc58internal12NodeTemplateILb1EED2Ev(ptr noundef nonnull align 8 dereferenceable(8) %agg.tmp) #3
  br label %eh.resume

eh.resume:                                        ; preds = %lpad
  %exn = load ptr, ptr %exn.slot, align 8
  %sel = load i32, ptr %ehselector.slot, align 4
  %lpad.val = insertvalue { ptr, i32 } poison, ptr %exn, 0
  %lpad.val2 = insertvalue { ptr, i32 } %lpad.val, i32 %sel, 1
  resume { ptr, i32 } %lpad.val2
}